; Function Attrs: nofree norecurse nosync nounwind memory(write, argmem: read, inaccessiblemem: none) uwtable
define noundef nonnull ptr @TextToUpper(ptr noundef readonly captures(address_is_null) %0) local_unnamed_addr #16 {
  tail call void @llvm.memset.p0.i64(ptr noundef nonnull align 16 dereferenceable(1024) @TextToUpper.buffer, i8 0, i64 1024, i1 false)
  %.not = icmp eq ptr %0, null
  br i1 %.not, label %.critedge, label %.preheader

.preheader:                                       ; preds = %1, %4
  %indvars.iv = phi i64 [ %indvars.iv.next, %4 ], [ 0, %1 ]
  %2 = getelementptr inbounds nuw i8, ptr %0, i64 %indvars.iv
  %3 = load i8, ptr %2, align 1
  %.not16 = icmp eq i8 %3, 0
  br i1 %.not16, label %.critedge, label %4

4:                                                ; preds = %.preheader
  %5 = add i8 %3, -97
  %or.cond = icmp ult i8 %5, 26
  %narrow = add nsw i8 %3, -32
  %spec.select = select i1 %or.cond, i8 %narrow, i8 %3
  %6 = getelementptr inbounds nuw [1024 x i8], ptr @TextToUpper.buffer, i64 0, i64 %indvars.iv
  store i8 %spec.select, ptr %6, align 1
  %indvars.iv.next = add nuw nsw i64 %indvars.iv, 1
  %exitcond.not = icmp eq i64 %indvars.iv.next, 1023
  br i1 %exitcond.not, label %.critedge, label %.preheader

.critedge:                                        ; preds = %.preheader, %4, %1
  ret ptr @TextToUpper.buffer
}